target datalayout = "e-m:e-p270:32:32-p271:32:32-p272:64:64-i64:64-i128:128-f80:128-n8:16:32:64-S128"
target triple = "x86_64-pc-linux-gnu"

%"struct.duckdb_miniz::mz_stream_s" = type { ptr, i32, i64, ptr, i32, i64, ptr, ptr, ptr, ptr, ptr, i32, i64, i64 }
%"struct.duckdb_miniz::inflate_state" = type { %"struct.duckdb_miniz::tinfl_decompressor_tag", i32, i32, i32, i32, i32, [32768 x i8], i32 }
%"struct.duckdb_miniz::tinfl_decompressor_tag" = type { i32, i32, i32, i32, i32, i32, i32, i32, i32, i32, i32, [3 x i32], i64, i64, [3 x %"struct.duckdb_miniz::tinfl_huff_table"], [4 x i8], [457 x i8] }
%"struct.duckdb_miniz::tinfl_huff_table" = type { [288 x i8], [1024 x i16], [576 x i16] }

; Function Attrs: mustprogress uwtable
define noundef i32 @_ZN12duckdb_miniz15mz_inflateInit2EPNS_11mz_stream_sEi(ptr noundef %0, i32 noundef %1) #5 {
  %3 = alloca i32, align 4
  %4 = alloca ptr, align 8
  %5 = alloca i32, align 4
  %6 = alloca ptr, align 8
  %7 = alloca i32, align 4
  store ptr %0, ptr %4, align 8, !tbaa !20
  store i32 %1, ptr %5, align 4, !tbaa !10
  call void @llvm.lifetime.start.p0(i64 8, ptr %6) #11
  %8 = load ptr, ptr %4, align 8, !tbaa !20
  %9 = icmp ne ptr %8, null
  br i1 %9, label %11, label %10

10:                                               ; preds = %2
  store i32 -2, ptr %3, align 4
  store i32 1, ptr %7, align 4
  br label %81

11:                                               ; preds = %2
  %12 = load i32, ptr %5, align 4, !tbaa !10
  %13 = icmp ne i32 %12, 15
  br i1 %13, label %14, label %19

14:                                               ; preds = %11
  %15 = load i32, ptr %5, align 4, !tbaa !10
  %16 = sub nsw i32 0, %15
  %17 = icmp ne i32 %16, 15
  br i1 %17, label %18, label %19

18:                                               ; preds = %14
  store i32 -10000, ptr %3, align 4
  store i32 1, ptr %7, align 4
  br label %81

19:                                               ; preds = %14, %11
  %20 = load ptr, ptr %4, align 8, !tbaa !20
  %21 = getelementptr inbounds nuw %"struct.duckdb_miniz::mz_stream_s", ptr %20, i32 0, i32 11
  store i32 0, ptr %21, align 8, !tbaa !22
  %22 = load ptr, ptr %4, align 8, !tbaa !20
  %23 = getelementptr inbounds nuw %"struct.duckdb_miniz::mz_stream_s", ptr %22, i32 0, i32 12
  store i64 0, ptr %23, align 8, !tbaa !25
  %24 = load ptr, ptr %4, align 8, !tbaa !20
  %25 = getelementptr inbounds nuw %"struct.duckdb_miniz::mz_stream_s", ptr %24, i32 0, i32 6
  store ptr null, ptr %25, align 8, !tbaa !26
  %26 = load ptr, ptr %4, align 8, !tbaa !20
  %27 = getelementptr inbounds nuw %"struct.duckdb_miniz::mz_stream_s", ptr %26, i32 0, i32 2
  store i64 0, ptr %27, align 8, !tbaa !28
  %28 = load ptr, ptr %4, align 8, !tbaa !20
  %29 = getelementptr inbounds nuw %"struct.duckdb_miniz::mz_stream_s", ptr %28, i32 0, i32 5
  store i64 0, ptr %29, align 8, !tbaa !29
  %30 = load ptr, ptr %4, align 8, !tbaa !20
  %31 = getelementptr inbounds nuw %"struct.duckdb_miniz::mz_stream_s", ptr %30, i32 0, i32 13
  store i64 0, ptr %31, align 8, !tbaa !27
  %32 = load ptr, ptr %4, align 8, !tbaa !20
  %33 = getelementptr inbounds nuw %"struct.duckdb_miniz::mz_stream_s", ptr %32, i32 0, i32 8
  %34 = load ptr, ptr %33, align 8, !tbaa !30
  %35 = icmp ne ptr %34, null
  br i1 %35, label %39, label %36

36:                                               ; preds = %19
  %37 = load ptr, ptr %4, align 8, !tbaa !20
  %38 = getelementptr inbounds nuw %"struct.duckdb_miniz::mz_stream_s", ptr %37, i32 0, i32 8
  store ptr @_ZN12duckdb_miniz20miniz_def_alloc_funcEPvmm, ptr %38, align 8, !tbaa !30
  br label %39

39:                                               ; preds = %36, %19
  %40 = load ptr, ptr %4, align 8, !tbaa !20
  %41 = getelementptr inbounds nuw %"struct.duckdb_miniz::mz_stream_s", ptr %40, i32 0, i32 9
  %42 = load ptr, ptr %41, align 8, !tbaa !31
  %43 = icmp ne ptr %42, null
  br i1 %43, label %47, label %44

44:                                               ; preds = %39
  %45 = load ptr, ptr %4, align 8, !tbaa !20
  %46 = getelementptr inbounds nuw %"struct.duckdb_miniz::mz_stream_s", ptr %45, i32 0, i32 9
  store ptr @_ZN12duckdb_miniz19miniz_def_free_funcEPvS0_, ptr %46, align 8, !tbaa !31
  br label %47

47:                                               ; preds = %44, %39
  %48 = load ptr, ptr %4, align 8, !tbaa !20
  %49 = getelementptr inbounds nuw %"struct.duckdb_miniz::mz_stream_s", ptr %48, i32 0, i32 8
  %50 = load ptr, ptr %49, align 8, !tbaa !30
  %51 = load ptr, ptr %4, align 8, !tbaa !20
  %52 = getelementptr inbounds nuw %"struct.duckdb_miniz::mz_stream_s", ptr %51, i32 0, i32 10
  %53 = load ptr, ptr %52, align 8, !tbaa !32
  %54 = call noundef ptr %50(ptr noundef %53, i64 noundef 1, i64 noundef 43792)
  store ptr %54, ptr %6, align 8, !tbaa !19
  %55 = load ptr, ptr %6, align 8, !tbaa !19
  %56 = icmp ne ptr %55, null
  br i1 %56, label %58, label %57

57:                                               ; preds = %47
  store i32 -4, ptr %3, align 4
  store i32 1, ptr %7, align 4
  br label %81

58:                                               ; preds = %47
  %59 = load ptr, ptr %6, align 8, !tbaa !19
  %60 = load ptr, ptr %4, align 8, !tbaa !20
  %61 = getelementptr inbounds nuw %"struct.duckdb_miniz::mz_stream_s", ptr %60, i32 0, i32 7
  store ptr %59, ptr %61, align 8, !tbaa !33
  br label %62

62:                                               ; preds = %58
  %63 = load ptr, ptr %6, align 8, !tbaa !19
  %64 = getelementptr inbounds nuw %"struct.duckdb_miniz::inflate_state", ptr %63, i32 0, i32 0
  %65 = getelementptr inbounds nuw %"struct.duckdb_miniz::tinfl_decompressor_tag", ptr %64, i32 0, i32 0
  store i32 0, ptr %65, align 8, !tbaa !80
  br label %66

66:                                               ; preds = %62
  br label %67

67:                                               ; preds = %66
  %68 = load ptr, ptr %6, align 8, !tbaa !19
  %69 = getelementptr inbounds nuw %"struct.duckdb_miniz::inflate_state", ptr %68, i32 0, i32 1
  store i32 0, ptr %69, align 8, !tbaa !84
  %70 = load ptr, ptr %6, align 8, !tbaa !19
  %71 = getelementptr inbounds nuw %"struct.duckdb_miniz::inflate_state", ptr %70, i32 0, i32 2
  store i32 0, ptr %71, align 4, !tbaa !85
  %72 = load ptr, ptr %6, align 8, !tbaa !19
  %73 = getelementptr inbounds nuw %"struct.duckdb_miniz::inflate_state", ptr %72, i32 0, i32 7
  store i32 1, ptr %73, align 4, !tbaa !86
  %74 = load ptr, ptr %6, align 8, !tbaa !19
  %75 = getelementptr inbounds nuw %"struct.duckdb_miniz::inflate_state", ptr %74, i32 0, i32 3
  store i32 1, ptr %75, align 8, !tbaa !87
  %76 = load ptr, ptr %6, align 8, !tbaa !19
  %77 = getelementptr inbounds nuw %"struct.duckdb_miniz::inflate_state", ptr %76, i32 0, i32 4
  store i32 0, ptr %77, align 4, !tbaa !88
  %78 = load i32, ptr %5, align 4, !tbaa !10
  %79 = load ptr, ptr %6, align 8, !tbaa !19
  %80 = getelementptr inbounds nuw %"struct.duckdb_miniz::inflate_state", ptr %79, i32 0, i32 5
  store i32 %78, ptr %80, align 8, !tbaa !89
  store i32 0, ptr %3, align 4
  store i32 1, ptr %7, align 4
  br label %81

81:                                               ; preds = %67, %57, %18, %10
  call void @llvm.lifetime.end.p0(i64 8, ptr %6) #11
  %82 = load i32, ptr %3, align 4
  ret i32 %82
}

; Function Attrs: mustprogress uwtable
define noundef i32 @_ZN12duckdb_miniz14mz_inflateInitEPNS_11mz_stream_sE(ptr noundef %0) #5 {
  %2 = alloca ptr, align 8
  store ptr %0, ptr %2, align 8, !tbaa !20
  %3 = load ptr, ptr %2, align 8, !tbaa !20
  %4 = call noundef i32 @_ZN12duckdb_miniz15mz_inflateInit2EPNS_11mz_stream_sEi(ptr noundef %3, i32 noundef 15)
  ret i32 %4
}