; Function Attrs: mustprogress uwtable
define noundef range(i32 -4, 1) i32 @_ZN12duckdb_miniz14mz_inflateInitEPNS_11mz_stream_sE(ptr noundef captures(address_is_null) %0) local_unnamed_addr #8 {
  %.not.i = icmp eq ptr %0, null
  br i1 %.not.i, label %_ZN12duckdb_miniz15mz_inflateInit2EPNS_11mz_stream_sEi.exit, label %2

2:                                                ; preds = %1
  %3 = getelementptr inbounds nuw i8, ptr %0, i64 88
  store i32 0, ptr %3, align 8, !tbaa !14
  %4 = getelementptr inbounds nuw i8, ptr %0, i64 96
  %5 = getelementptr inbounds nuw i8, ptr %0, i64 16
  store i64 0, ptr %5, align 8, !tbaa !22
  %6 = getelementptr inbounds nuw i8, ptr %0, i64 40
  %7 = getelementptr inbounds nuw i8, ptr %0, i64 64
  tail call void @llvm.memset.p0.i64(ptr noundef nonnull align 8 dereferenceable(16) %6, i8 0, i64 16, i1 false)
  tail call void @llvm.memset.p0.i64(ptr noundef nonnull align 8 dereferenceable(16) %4, i8 0, i64 16, i1 false)
  %8 = load ptr, ptr %7, align 8, !tbaa !23
  %.not31.i = icmp eq ptr %8, null
  br i1 %.not31.i, label %9, label %10

9:                                                ; preds = %2
  store ptr @_ZN12duckdb_miniz20miniz_def_alloc_funcEPvmm, ptr %7, align 8, !tbaa !23
  br label %10

10:                                               ; preds = %9, %2
  %11 = phi ptr [ @_ZN12duckdb_miniz20miniz_def_alloc_funcEPvmm, %9 ], [ %8, %2 ]
  %12 = getelementptr inbounds nuw i8, ptr %0, i64 72
  %13 = load ptr, ptr %12, align 8, !tbaa !24
  %.not32.i = icmp eq ptr %13, null
  br i1 %.not32.i, label %14, label %15

14:                                               ; preds = %10
  store ptr @_ZN12duckdb_miniz19miniz_def_free_funcEPvS0_, ptr %12, align 8, !tbaa !24
  br label %15

15:                                               ; preds = %14, %10
  %16 = getelementptr inbounds nuw i8, ptr %0, i64 80
  %17 = load ptr, ptr %16, align 8, !tbaa !25
  %18 = tail call noundef ptr %11(ptr noundef %17, i64 noundef 1, i64 noundef 43792)
  %.not33.i = icmp eq ptr %18, null
  br i1 %.not33.i, label %_ZN12duckdb_miniz15mz_inflateInit2EPNS_11mz_stream_sEi.exit, label %19

19:                                               ; preds = %15
  %20 = getelementptr inbounds nuw i8, ptr %0, i64 56
  store ptr %18, ptr %20, align 8, !tbaa !26
  store i32 0, ptr %18, align 8, !tbaa !66
  %21 = getelementptr inbounds nuw i8, ptr %18, i64 11000
  store i32 0, ptr %21, align 8, !tbaa !70
  %22 = getelementptr inbounds nuw i8, ptr %18, i64 11004
  store i32 0, ptr %22, align 4, !tbaa !71
  %23 = getelementptr inbounds nuw i8, ptr %18, i64 43788
  store i32 1, ptr %23, align 4, !tbaa !72
  %24 = getelementptr inbounds nuw i8, ptr %18, i64 11008
  store i32 1, ptr %24, align 8, !tbaa !73
  %25 = getelementptr inbounds nuw i8, ptr %18, i64 11012
  store i32 0, ptr %25, align 4, !tbaa !74
  %26 = getelementptr inbounds nuw i8, ptr %18, i64 11016
  store i32 15, ptr %26, align 8, !tbaa !75
  br label %_ZN12duckdb_miniz15mz_inflateInit2EPNS_11mz_stream_sEi.exit

_ZN12duckdb_miniz15mz_inflateInit2EPNS_11mz_stream_sEi.exit: ; preds = %1, %15, %19
  %.0.i = phi i32 [ 0, %19 ], [ -2, %1 ], [ -4, %15 ]
  ret i32 %.0.i
}